target datalayout = "e-m:e-p270:32:32-p271:32:32-p272:64:64-i64:64-i128:128-f80:128-n8:16:32:64-S128"
target triple = "x86_64-unknown-linux-gnu"

%"class.zmq::raw_decoder_t" = type { %"class.zmq::i_decoder", %"class.zmq::msg_t", %"class.zmq::shared_message_memory_allocator" }
%"class.zmq::i_decoder" = type { ptr }
%"class.zmq::msg_t" = type { %union.anon }
%union.anon = type { %struct.anon }
%struct.anon = type { ptr, [34 x i8], i8, i8, i32, %"union.zmq::msg_t::group_t" }
%"union.zmq::msg_t::group_t" = type { %struct.anon.1 }
%struct.anon.1 = type { i8, ptr }
%"class.zmq::shared_message_memory_allocator" = type { ptr, i64, i64, ptr, i64 }
%"struct.zmq::msg_t::content_t" = type { ptr, i64, ptr, ptr, %"class.zmq::atomic_counter_t" }
%"class.zmq::atomic_counter_t" = type { %"struct.std::atomic", [4 x i8] }
%"struct.std::atomic" = type { %"struct.std::__atomic_base" }
%"struct.std::__atomic_base" = type { i32 }

@stderr = external global ptr, align 8
@.str = private unnamed_addr constant [12 x i8] c"%s (%s:%d)\0A\00", align 1
@.str.1 = private unnamed_addr constant [111 x i8] c"generated/home/dtcxzyw/WorkSpace/Projects/compilers/llvm-opt-benchmark/bench/libzmq/libzmq/src/raw_decoder.cpp\00", align 1

; Function Attrs: mustprogress nounwind uwtable
define linkonce_odr void @_ZN3zmq31shared_message_memory_allocator15advance_contentEv(ptr noundef nonnull align 8 dereferenceable(40) %this) #1 comdat align 2 {
entry:
  %this.addr = alloca ptr, align 8
  store ptr %this, ptr %this.addr, align 8
  %this1 = load ptr, ptr %this.addr, align 8
  %_msg_content = getelementptr inbounds %"class.zmq::shared_message_memory_allocator", ptr %this1, i32 0, i32 3
  %0 = load ptr, ptr %_msg_content, align 8
  %incdec.ptr = getelementptr inbounds %"struct.zmq::msg_t::content_t", ptr %0, i32 1
  store ptr %incdec.ptr, ptr %_msg_content, align 8
  ret void
}

; Function Attrs: mustprogress nounwind uwtable
define linkonce_odr noundef ptr @_ZN3zmq31shared_message_memory_allocator15provide_contentEv(ptr noundef nonnull align 8 dereferenceable(40) %this) #1 comdat align 2 {
entry:
  %this.addr = alloca ptr, align 8
  store ptr %this, ptr %this.addr, align 8
  %this1 = load ptr, ptr %this.addr, align 8
  %_msg_content = getelementptr inbounds %"class.zmq::shared_message_memory_allocator", ptr %this1, i32 0, i32 3
  %0 = load ptr, ptr %_msg_content, align 8
  ret ptr %0
}

; Function Attrs: mustprogress nounwind uwtable
define linkonce_odr noundef ptr @_ZN3zmq31shared_message_memory_allocator6bufferEv(ptr noundef nonnull align 8 dereferenceable(40) %this) #1 comdat align 2 {
entry:
  %this.addr = alloca ptr, align 8
  store ptr %this, ptr %this.addr, align 8
  %this1 = load ptr, ptr %this.addr, align 8
  %_buf = getelementptr inbounds %"class.zmq::shared_message_memory_allocator", ptr %this1, i32 0, i32 0
  %0 = load ptr, ptr %_buf, align 8
  ret ptr %0
}

; Function Attrs: mustprogress uwtable
define noundef i32 @_ZN3zmq13raw_decoder_t6decodeEPKhmRm(ptr noundef nonnull align 8 dereferenceable(112) %this, ptr noundef %data_, i64 noundef %size_, ptr noundef nonnull align 8 dereferenceable(8) %bytes_used_) unnamed_addr #0 align 2 {
entry:
  %this.addr = alloca ptr, align 8
  %data_.addr = alloca ptr, align 8
  %size_.addr = alloca i64, align 8
  %bytes_used_.addr = alloca ptr, align 8
  %rc = alloca i32, align 4
  %errstr = alloca ptr, align 8
  store ptr %this, ptr %this.addr, align 8
  store ptr %data_, ptr %data_.addr, align 8
  store i64 %size_, ptr %size_.addr, align 8
  store ptr %bytes_used_, ptr %bytes_used_.addr, align 8
  %this1 = load ptr, ptr %this.addr, align 8
  %_in_progress = getelementptr inbounds %"class.zmq::raw_decoder_t", ptr %this1, i32 0, i32 1
  %0 = load ptr, ptr %data_.addr, align 8
  %1 = load i64, ptr %size_.addr, align 8
  %_allocator = getelementptr inbounds %"class.zmq::raw_decoder_t", ptr %this1, i32 0, i32 2
  %call = call noundef ptr @_ZN3zmq31shared_message_memory_allocator6bufferEv(ptr noundef nonnull align 8 dereferenceable(40) %_allocator)
  %_allocator2 = getelementptr inbounds %"class.zmq::raw_decoder_t", ptr %this1, i32 0, i32 2
  %call3 = call noundef ptr @_ZN3zmq31shared_message_memory_allocator15provide_contentEv(ptr noundef nonnull align 8 dereferenceable(40) %_allocator2)
  %call4 = call noundef i32 @_ZN3zmq5msg_t4initEPvmPFvS1_S1_ES1_PNS0_9content_tE(ptr noundef nonnull align 8 dereferenceable(64) %_in_progress, ptr noundef %0, i64 noundef %1, ptr noundef @_ZN3zmq31shared_message_memory_allocator12call_dec_refEPvS1_, ptr noundef %call, ptr noundef %call3)
  store i32 %call4, ptr %rc, align 4
  %_in_progress5 = getelementptr inbounds %"class.zmq::raw_decoder_t", ptr %this1, i32 0, i32 1
  %call6 = call noundef zeroext i1 @_ZNK3zmq5msg_t8is_zcmsgEv(ptr noundef nonnull align 8 dereferenceable(64) %_in_progress5)
  br i1 %call6, label %if.then, label %if.end

if.then:                                          ; preds = %entry
  %_allocator7 = getelementptr inbounds %"class.zmq::raw_decoder_t", ptr %this1, i32 0, i32 2
  call void @_ZN3zmq31shared_message_memory_allocator15advance_contentEv(ptr noundef nonnull align 8 dereferenceable(40) %_allocator7)
  %_allocator8 = getelementptr inbounds %"class.zmq::raw_decoder_t", ptr %this1, i32 0, i32 2
  %call9 = call noundef ptr @_ZN3zmq31shared_message_memory_allocator7releaseEv(ptr noundef nonnull align 8 dereferenceable(40) %_allocator8)
  br label %if.end

if.end:                                           ; preds = %if.then, %entry
  br label %do.body

do.body:                                          ; preds = %if.end
  %2 = load i32, ptr %rc, align 4
  %cmp = icmp ne i32 %2, -1
  %lnot = xor i1 %cmp, true
  br i1 %lnot, label %if.then10, label %if.end15

if.then10:                                        ; preds = %do.body
  %call11 = call ptr @__errno_location() #9
  %3 = load i32, ptr %call11, align 4
  %call12 = call ptr @strerror(i32 noundef %3) #8
  store ptr %call12, ptr %errstr, align 8
  %4 = load ptr, ptr @stderr, align 8
  %5 = load ptr, ptr %errstr, align 8
  %call13 = call i32 (ptr, ptr, ...) @fprintf(ptr noundef %4, ptr noundef @.str, ptr noundef %5, ptr noundef @.str.1, i32 noundef 44)
  %6 = load ptr, ptr @stderr, align 8
  %call14 = call i32 @fflush(ptr noundef %6)
  %7 = load ptr, ptr %errstr, align 8
  call void @_ZN3zmq9zmq_abortEPKc(ptr noundef %7)
  br label %if.end15

if.end15:                                         ; preds = %if.then10, %do.body
  br label %do.end

do.end:                                           ; preds = %if.end15
  %8 = load i64, ptr %size_.addr, align 8
  %9 = load ptr, ptr %bytes_used_.addr, align 8
  store i64 %8, ptr %9, align 8
  ret i32 1
}