; Function Attrs: mustprogress uwtable
define noundef i32 @_ZN3zmq13raw_decoder_t6decodeEPKhmRm(ptr noundef nonnull align 8 dereferenceable(112) %this, ptr noundef %data_, i64 noundef %size_, ptr nocapture noundef nonnull writeonly align 8 dereferenceable(8) %bytes_used_) unnamed_addr #0 align 2 {
entry:
  %_in_progress = getelementptr inbounds i8, ptr %this, i64 8
  %_allocator = getelementptr inbounds i8, ptr %this, i64 72
  %0 = load ptr, ptr %_allocator, align 8
  %_msg_content.i = getelementptr inbounds i8, ptr %this, i64 96
  %1 = load ptr, ptr %_msg_content.i, align 8
  %call4 = tail call noundef i32 @_ZN3zmq5msg_t4initEPvmPFvS1_S1_ES1_PNS0_9content_tE(ptr noundef nonnull align 8 dereferenceable(64) %_in_progress, ptr noundef %data_, i64 noundef %size_, ptr noundef nonnull @_ZN3zmq31shared_message_memory_allocator12call_dec_refEPvS1_, ptr noundef %0, ptr noundef %1)
  %call6 = tail call noundef zeroext i1 @_ZNK3zmq5msg_t8is_zcmsgEv(ptr noundef nonnull align 8 dereferenceable(64) %_in_progress)
  br i1 %call6, label %if.then, label %do.body

if.then:                                          ; preds = %entry
  %2 = load ptr, ptr %_msg_content.i, align 8
  %incdec.ptr.i = getelementptr inbounds i8, ptr %2, i64 40
  store ptr %incdec.ptr.i, ptr %_msg_content.i, align 8
  %call9 = tail call noundef ptr @_ZN3zmq31shared_message_memory_allocator7releaseEv(ptr noundef nonnull align 8 dereferenceable(40) %_allocator)
  br label %do.body

do.body:                                          ; preds = %entry, %if.then
  %cmp.not = icmp eq i32 %call4, -1
  br i1 %cmp.not, label %if.then10, label %do.end

if.then10:                                        ; preds = %do.body
  %call11 = tail call ptr @__errno_location() #8
  %3 = load i32, ptr %call11, align 4
  %call12 = tail call ptr @strerror(i32 noundef %3) #9
  %4 = load ptr, ptr @stderr, align 8
  %call13 = tail call i32 (ptr, ptr, ...) @fprintf(ptr noundef %4, ptr noundef nonnull @.str, ptr noundef %call12, ptr noundef nonnull @.str.1, i32 noundef 44) #10
  %5 = load ptr, ptr @stderr, align 8
  %call14 = tail call i32 @fflush(ptr noundef %5)
  tail call void @_ZN3zmq9zmq_abortEPKc(ptr noundef %call12)
  br label %do.end

do.end:                                           ; preds = %do.body, %if.then10
  store i64 %size_, ptr %bytes_used_, align 8
  ret i32 1
}